; Function Attrs: nounwind uwtable
define range(i32 0, 2) i32 @Io_ReadBlifNetworkConnectBoxesOne(ptr noundef %0, ptr noundef %1, ptr noundef %2) local_unnamed_addr #0 {
  %4 = getelementptr inbounds nuw i8, ptr %1, i64 80
  %5 = load ptr, ptr %4, align 8, !tbaa !101
  %6 = getelementptr i8, ptr %5, i64 4
  %.val14 = load i32, ptr %6, align 4, !tbaa !20
  %7 = icmp sgt i32 %.val14, 0
  br i1 %7, label %.lr.ph, label %.critedge

.lr.ph:                                           ; preds = %3, %16
  %8 = phi ptr [ %17, %16 ], [ %5, %3 ]
  %indvars.iv = phi i64 [ %indvars.iv.next, %16 ], [ 0, %3 ]
  %9 = getelementptr i8, ptr %8, i64 8
  %.val12.val = load ptr, ptr %9, align 8, !tbaa !23
  %10 = getelementptr inbounds nuw ptr, ptr %.val12.val, i64 %indvars.iv
  %11 = load ptr, ptr %10, align 8, !tbaa !40
  %12 = getelementptr i8, ptr %11, i64 20
  %.val13 = load i32, ptr %12, align 4
  %13 = and i32 %.val13, 15
  %.not = icmp eq i32 %13, 10
  br i1 %.not, label %14, label %16

14:                                               ; preds = %.lr.ph
  %15 = tail call i32 @Io_ReadBlifNetworkConnectBoxesOneBox(ptr noundef %0, ptr noundef nonnull %11, ptr noundef %2)
  %.not11 = icmp eq i32 %15, 0
  br i1 %.not11, label %._crit_edge, label %.loopexit

._crit_edge:                                      ; preds = %14
  %.pre = load ptr, ptr %4, align 8, !tbaa !101
  br label %16

16:                                               ; preds = %._crit_edge, %.lr.ph
  %17 = phi ptr [ %.pre, %._crit_edge ], [ %8, %.lr.ph ]
  %indvars.iv.next = add nuw nsw i64 %indvars.iv, 1
  %18 = getelementptr i8, ptr %17, i64 4
  %.val = load i32, ptr %18, align 4, !tbaa !20
  %19 = sext i32 %.val to i64
  %20 = icmp slt i64 %indvars.iv.next, %19
  br i1 %20, label %.lr.ph, label %.critedge, !llvm.loop !102

.critedge:                                        ; preds = %16, %3
  tail call void @Abc_NtkFinalizeRead(ptr noundef nonnull %1) #14
  br label %.loopexit

.loopexit:                                        ; preds = %14, %.critedge
  %.010 = phi i32 [ 0, %.critedge ], [ 1, %14 ]
  ret i32 %.010
}